; ModuleID = '54/183.c'
source_filename = "54/183.c"
target datalayout = "e-m:e-p270:32:32-p271:32:32-p272:64:64-i64:64-f80:128-n8:16:32:64-S128"
target triple = "x86_64-pc-linux-gnu"

@.str = private unnamed_addr constant [6 x i8] c"%d %d\00", align 1
@.str.1 = private unnamed_addr constant [3 x i8] c"%d\00", align 1

; Function Attrs: noinline nounwind uwtable
define dso_local void @main() #0 {
  %1 = alloca i32, align 4
  %2 = alloca i32, align 4
  %3 = alloca i32, align 4
  %4 = alloca i32, align 4
  store i32 1, i32* %4, align 4
  %5 = call i32 (i8*, ...) @__isoc99_scanf(i8* getelementptr inbounds ([6 x i8], [6 x i8]* @.str, i64 0, i64 0), i32* %2, i32* %3)
  %6 = load i32, i32* %2, align 4
  %7 = icmp eq i32 %6, 2
  br i1 %7, label %8, label %12

8:                                                ; preds = %0
  %9 = load i32, i32* %3, align 4
  %10 = mul nsw i32 3, %9
  %11 = add nsw i32 %10, 4
  store i32 %11, i32* %4, align 4
  br label %31

12:                                               ; preds = %0
  store i32 1, i32* %1, align 4
  br label %13

13:                                               ; preds = %21, %12
  %14 = load i32, i32* %1, align 4
  %15 = load i32, i32* %2, align 4
  %16 = icmp sle i32 %14, %15
  br i1 %16, label %17, label %24

17:                                               ; preds = %13
  %18 = load i32, i32* %4, align 4
  %19 = load i32, i32* %2, align 4
  %20 = mul nsw i32 %18, %19
  store i32 %20, i32* %4, align 4
  br label %21

21:                                               ; preds = %17
  %22 = load i32, i32* %1, align 4
  %23 = add nsw i32 %22, 1
  store i32 %23, i32* %1, align 4
  br label %13

24:                                               ; preds = %13
  %25 = load i32, i32* %4, align 4
  %26 = load i32, i32* %2, align 4
  %27 = sub nsw i32 %26, 1
  %28 = load i32, i32* %3, align 4
  %29 = mul nsw i32 %27, %28
  %30 = sub nsw i32 %25, %29
  store i32 %30, i32* %4, align 4
  br label %31

31:                                               ; preds = %24, %8
  %32 = load i32, i32* %4, align 4
  %33 = call i32 (i8*, ...) @printf(i8* getelementptr inbounds ([3 x i8], [3 x i8]* @.str.1, i64 0, i64 0), i32 %32)
  ret void
}

declare dso_local i32 @__isoc99_scanf(i8*, ...) #1

declare dso_local i32 @printf(i8*, ...) #1


!llvm.module.flags = !{!0}
!llvm.ident = !{!1}

!0 = !{i32 1, !"wchar_size", i32 4}
!1 = !{!"clang version 10.0.0-4ubuntu1 "}
